target datalayout = "e-m:e-p270:32:32-p271:32:32-p272:64:64-i64:64-i128:128-f80:128-n8:16:32:64-S128"
target triple = "x86_64-unknown-linux-gnu"

; Function Attrs: mustprogress nounwind uwtable
define internal noundef zeroext i1 @_ZN8QuantLib12_GLOBAL__N_126isExtraHolidayExchangeImplEiNS_5MonthEi(i32 noundef %d, i32 noundef %month, i32 noundef %year) #1 {
entry:
  %retval = alloca i1, align 1
  %d.addr = alloca i32, align 4
  %month.addr = alloca i32, align 4
  %year.addr = alloca i32, align 4
  store i32 %d, ptr %d.addr, align 4, !tbaa !17
  store i32 %month, ptr %month.addr, align 4, !tbaa !19
  store i32 %year, ptr %year.addr, align 4, !tbaa !17
  %0 = load i32, ptr %year.addr, align 4, !tbaa !17
  switch i32 %0, label %sw.default99 [
    i32 2012, label %sw.bb
    i32 2013, label %sw.bb8
    i32 2014, label %sw.bb18
    i32 2015, label %sw.bb29
    i32 2016, label %sw.bb38
    i32 2017, label %sw.bb56
    i32 2018, label %sw.bb62
    i32 2019, label %sw.bb73
    i32 2020, label %sw.bb84
  ]

sw.bb:                                            ; preds = %entry
  %1 = load i32, ptr %month.addr, align 4, !tbaa !19
  switch i32 %1, label %sw.default [
    i32 1, label %sw.bb1
    i32 3, label %sw.bb2
    i32 4, label %sw.bb4
    i32 6, label %sw.bb6
  ]

sw.bb1:                                           ; preds = %sw.bb
  %2 = load i32, ptr %d.addr, align 4, !tbaa !17
  %cmp = icmp eq i32 %2, 2
  store i1 %cmp, ptr %retval, align 1
  br label %return

sw.bb2:                                           ; preds = %sw.bb
  %3 = load i32, ptr %d.addr, align 4, !tbaa !17
  %cmp3 = icmp eq i32 %3, 9
  store i1 %cmp3, ptr %retval, align 1
  br label %return

sw.bb4:                                           ; preds = %sw.bb
  %4 = load i32, ptr %d.addr, align 4, !tbaa !17
  %cmp5 = icmp eq i32 %4, 30
  store i1 %cmp5, ptr %retval, align 1
  br label %return

sw.bb6:                                           ; preds = %sw.bb
  %5 = load i32, ptr %d.addr, align 4, !tbaa !17
  %cmp7 = icmp eq i32 %5, 11
  store i1 %cmp7, ptr %retval, align 1
  br label %return

sw.default:                                       ; preds = %sw.bb
  store i1 false, ptr %retval, align 1
  br label %return

sw.bb8:                                           ; preds = %entry
  %6 = load i32, ptr %month.addr, align 4, !tbaa !19
  switch i32 %6, label %sw.default17 [
    i32 1, label %sw.bb9
  ]

sw.bb9:                                           ; preds = %sw.bb8
  %7 = load i32, ptr %d.addr, align 4, !tbaa !17
  %cmp10 = icmp eq i32 %7, 1
  br i1 %cmp10, label %lor.end, label %lor.lhs.false

lor.lhs.false:                                    ; preds = %sw.bb9
  %8 = load i32, ptr %d.addr, align 4, !tbaa !17
  %cmp11 = icmp eq i32 %8, 2
  br i1 %cmp11, label %lor.end, label %lor.lhs.false12

lor.lhs.false12:                                  ; preds = %lor.lhs.false
  %9 = load i32, ptr %d.addr, align 4, !tbaa !17
  %cmp13 = icmp eq i32 %9, 3
  br i1 %cmp13, label %lor.end, label %lor.lhs.false14

lor.lhs.false14:                                  ; preds = %lor.lhs.false12
  %10 = load i32, ptr %d.addr, align 4, !tbaa !17
  %cmp15 = icmp eq i32 %10, 4
  br i1 %cmp15, label %lor.end, label %lor.rhs

lor.rhs:                                          ; preds = %lor.lhs.false14
  %11 = load i32, ptr %d.addr, align 4, !tbaa !17
  %cmp16 = icmp eq i32 %11, 7
  br label %lor.end

lor.end:                                          ; preds = %lor.rhs, %lor.lhs.false14, %lor.lhs.false12, %lor.lhs.false, %sw.bb9
  %12 = phi i1 [ true, %lor.lhs.false14 ], [ true, %lor.lhs.false12 ], [ true, %lor.lhs.false ], [ true, %sw.bb9 ], [ %cmp16, %lor.rhs ]
  store i1 %12, ptr %retval, align 1
  br label %return

sw.default17:                                     ; preds = %sw.bb8
  store i1 false, ptr %retval, align 1
  br label %return

sw.bb18:                                          ; preds = %entry
  %13 = load i32, ptr %month.addr, align 4, !tbaa !19
  switch i32 %13, label %sw.default28 [
    i32 1, label %sw.bb19
  ]

sw.bb19:                                          ; preds = %sw.bb18
  %14 = load i32, ptr %d.addr, align 4, !tbaa !17
  %cmp20 = icmp eq i32 %14, 1
  br i1 %cmp20, label %lor.end27, label %lor.lhs.false21

lor.lhs.false21:                                  ; preds = %sw.bb19
  %15 = load i32, ptr %d.addr, align 4, !tbaa !17
  %cmp22 = icmp eq i32 %15, 2
  br i1 %cmp22, label %lor.end27, label %lor.lhs.false23

lor.lhs.false23:                                  ; preds = %lor.lhs.false21
  %16 = load i32, ptr %d.addr, align 4, !tbaa !17
  %cmp24 = icmp eq i32 %16, 3
  br i1 %cmp24, label %lor.end27, label %lor.rhs25

lor.rhs25:                                        ; preds = %lor.lhs.false23
  %17 = load i32, ptr %d.addr, align 4, !tbaa !17
  %cmp26 = icmp eq i32 %17, 7
  br label %lor.end27

lor.end27:                                        ; preds = %lor.rhs25, %lor.lhs.false23, %lor.lhs.false21, %sw.bb19
  %18 = phi i1 [ true, %lor.lhs.false23 ], [ true, %lor.lhs.false21 ], [ true, %sw.bb19 ], [ %cmp26, %lor.rhs25 ]
  store i1 %18, ptr %retval, align 1
  br label %return

sw.default28:                                     ; preds = %sw.bb18
  store i1 false, ptr %retval, align 1
  br label %return

sw.bb29:                                          ; preds = %entry
  %19 = load i32, ptr %month.addr, align 4, !tbaa !19
  switch i32 %19, label %sw.default37 [
    i32 1, label %sw.bb30
  ]

sw.bb30:                                          ; preds = %sw.bb29
  %20 = load i32, ptr %d.addr, align 4, !tbaa !17
  %cmp31 = icmp eq i32 %20, 1
  br i1 %cmp31, label %lor.end36, label %lor.lhs.false32

lor.lhs.false32:                                  ; preds = %sw.bb30
  %21 = load i32, ptr %d.addr, align 4, !tbaa !17
  %cmp33 = icmp eq i32 %21, 2
  br i1 %cmp33, label %lor.end36, label %lor.rhs34

lor.rhs34:                                        ; preds = %lor.lhs.false32
  %22 = load i32, ptr %d.addr, align 4, !tbaa !17
  %cmp35 = icmp eq i32 %22, 7
  br label %lor.end36

lor.end36:                                        ; preds = %lor.rhs34, %lor.lhs.false32, %sw.bb30
  %23 = phi i1 [ true, %lor.lhs.false32 ], [ true, %sw.bb30 ], [ %cmp35, %lor.rhs34 ]
  store i1 %23, ptr %retval, align 1
  br label %return

sw.default37:                                     ; preds = %sw.bb29
  store i1 false, ptr %retval, align 1
  br label %return

sw.bb38:                                          ; preds = %entry
  %24 = load i32, ptr %month.addr, align 4, !tbaa !19
  switch i32 %24, label %sw.default55 [
    i32 1, label %sw.bb39
    i32 5, label %sw.bb46
    i32 6, label %sw.bb51
    i32 12, label %sw.bb53
  ]

sw.bb39:                                          ; preds = %sw.bb38
  %25 = load i32, ptr %d.addr, align 4, !tbaa !17
  %cmp40 = icmp eq i32 %25, 1
  br i1 %cmp40, label %lor.end45, label %lor.lhs.false41

lor.lhs.false41:                                  ; preds = %sw.bb39
  %26 = load i32, ptr %d.addr, align 4, !tbaa !17
  %cmp42 = icmp eq i32 %26, 7
  br i1 %cmp42, label %lor.end45, label %lor.rhs43

lor.rhs43:                                        ; preds = %lor.lhs.false41
  %27 = load i32, ptr %d.addr, align 4, !tbaa !17
  %cmp44 = icmp eq i32 %27, 8
  br label %lor.end45

lor.end45:                                        ; preds = %lor.rhs43, %lor.lhs.false41, %sw.bb39
  %28 = phi i1 [ true, %lor.lhs.false41 ], [ true, %sw.bb39 ], [ %cmp44, %lor.rhs43 ]
  store i1 %28, ptr %retval, align 1
  br label %return

sw.bb46:                                          ; preds = %sw.bb38
  %29 = load i32, ptr %d.addr, align 4, !tbaa !17
  %cmp47 = icmp eq i32 %29, 2
  br i1 %cmp47, label %lor.end50, label %lor.rhs48

lor.rhs48:                                        ; preds = %sw.bb46
  %30 = load i32, ptr %d.addr, align 4, !tbaa !17
  %cmp49 = icmp eq i32 %30, 3
  br label %lor.end50

lor.end50:                                        ; preds = %lor.rhs48, %sw.bb46
  %31 = phi i1 [ true, %sw.bb46 ], [ %cmp49, %lor.rhs48 ]
  store i1 %31, ptr %retval, align 1
  br label %return

sw.bb51:                                          ; preds = %sw.bb38
  %32 = load i32, ptr %d.addr, align 4, !tbaa !17
  %cmp52 = icmp eq i32 %32, 13
  store i1 %cmp52, ptr %retval, align 1
  br label %return

sw.bb53:                                          ; preds = %sw.bb38
  %33 = load i32, ptr %d.addr, align 4, !tbaa !17
  %cmp54 = icmp eq i32 %33, 30
  store i1 %cmp54, ptr %retval, align 1
  br label %return

sw.default55:                                     ; preds = %sw.bb38
  store i1 false, ptr %retval, align 1
  br label %return

sw.bb56:                                          ; preds = %entry
  %34 = load i32, ptr %month.addr, align 4, !tbaa !19
  switch i32 %34, label %sw.default61 [
    i32 1, label %sw.bb57
    i32 5, label %sw.bb59
  ]

sw.bb57:                                          ; preds = %sw.bb56
  %35 = load i32, ptr %d.addr, align 4, !tbaa !17
  %cmp58 = icmp eq i32 %35, 2
  store i1 %cmp58, ptr %retval, align 1
  br label %return

sw.bb59:                                          ; preds = %sw.bb56
  %36 = load i32, ptr %d.addr, align 4, !tbaa !17
  %cmp60 = icmp eq i32 %36, 8
  store i1 %cmp60, ptr %retval, align 1
  br label %return

sw.default61:                                     ; preds = %sw.bb56
  store i1 false, ptr %retval, align 1
  br label %return

sw.bb62:                                          ; preds = %entry
  %37 = load i32, ptr %month.addr, align 4, !tbaa !19
  switch i32 %37, label %sw.default72 [
    i32 1, label %sw.bb63
    i32 12, label %sw.bb70
  ]

sw.bb63:                                          ; preds = %sw.bb62
  %38 = load i32, ptr %d.addr, align 4, !tbaa !17
  %cmp64 = icmp eq i32 %38, 1
  br i1 %cmp64, label %lor.end69, label %lor.lhs.false65

lor.lhs.false65:                                  ; preds = %sw.bb63
  %39 = load i32, ptr %d.addr, align 4, !tbaa !17
  %cmp66 = icmp eq i32 %39, 2
  br i1 %cmp66, label %lor.end69, label %lor.rhs67

lor.rhs67:                                        ; preds = %lor.lhs.false65
  %40 = load i32, ptr %d.addr, align 4, !tbaa !17
  %cmp68 = icmp eq i32 %40, 8
  br label %lor.end69

lor.end69:                                        ; preds = %lor.rhs67, %lor.lhs.false65, %sw.bb63
  %41 = phi i1 [ true, %lor.lhs.false65 ], [ true, %sw.bb63 ], [ %cmp68, %lor.rhs67 ]
  store i1 %41, ptr %retval, align 1
  br label %return

sw.bb70:                                          ; preds = %sw.bb62
  %42 = load i32, ptr %d.addr, align 4, !tbaa !17
  %cmp71 = icmp eq i32 %42, 31
  store i1 %cmp71, ptr %retval, align 1
  br label %return

sw.default72:                                     ; preds = %sw.bb62
  store i1 false, ptr %retval, align 1
  br label %return

sw.bb73:                                          ; preds = %entry
  %43 = load i32, ptr %month.addr, align 4, !tbaa !19
  switch i32 %43, label %sw.default83 [
    i32 1, label %sw.bb74
    i32 12, label %sw.bb81
  ]

sw.bb74:                                          ; preds = %sw.bb73
  %44 = load i32, ptr %d.addr, align 4, !tbaa !17
  %cmp75 = icmp eq i32 %44, 1
  br i1 %cmp75, label %lor.end80, label %lor.lhs.false76

lor.lhs.false76:                                  ; preds = %sw.bb74
  %45 = load i32, ptr %d.addr, align 4, !tbaa !17
  %cmp77 = icmp eq i32 %45, 2
  br i1 %cmp77, label %lor.end80, label %lor.rhs78

lor.rhs78:                                        ; preds = %lor.lhs.false76
  %46 = load i32, ptr %d.addr, align 4, !tbaa !17
  %cmp79 = icmp eq i32 %46, 7
  br label %lor.end80

lor.end80:                                        ; preds = %lor.rhs78, %lor.lhs.false76, %sw.bb74
  %47 = phi i1 [ true, %lor.lhs.false76 ], [ true, %sw.bb74 ], [ %cmp79, %lor.rhs78 ]
  store i1 %47, ptr %retval, align 1
  br label %return

sw.bb81:                                          ; preds = %sw.bb73
  %48 = load i32, ptr %d.addr, align 4, !tbaa !17
  %cmp82 = icmp eq i32 %48, 31
  store i1 %cmp82, ptr %retval, align 1
  br label %return

sw.default83:                                     ; preds = %sw.bb73
  store i1 false, ptr %retval, align 1
  br label %return

sw.bb84:                                          ; preds = %entry
  %49 = load i32, ptr %month.addr, align 4, !tbaa !19
  switch i32 %49, label %sw.default98 [
    i32 1, label %sw.bb85
    i32 2, label %sw.bb92
    i32 6, label %sw.bb94
    i32 7, label %sw.bb96
  ]

sw.bb85:                                          ; preds = %sw.bb84
  %50 = load i32, ptr %d.addr, align 4, !tbaa !17
  %cmp86 = icmp eq i32 %50, 1
  br i1 %cmp86, label %lor.end91, label %lor.lhs.false87

lor.lhs.false87:                                  ; preds = %sw.bb85
  %51 = load i32, ptr %d.addr, align 4, !tbaa !17
  %cmp88 = icmp eq i32 %51, 2
  br i1 %cmp88, label %lor.end91, label %lor.rhs89

lor.rhs89:                                        ; preds = %lor.lhs.false87
  %52 = load i32, ptr %d.addr, align 4, !tbaa !17
  %cmp90 = icmp eq i32 %52, 7
  br label %lor.end91

lor.end91:                                        ; preds = %lor.rhs89, %lor.lhs.false87, %sw.bb85
  %53 = phi i1 [ true, %lor.lhs.false87 ], [ true, %sw.bb85 ], [ %cmp90, %lor.rhs89 ]
  store i1 %53, ptr %retval, align 1
  br label %return

sw.bb92:                                          ; preds = %sw.bb84
  %54 = load i32, ptr %d.addr, align 4, !tbaa !17
  %cmp93 = icmp eq i32 %54, 24
  store i1 %cmp93, ptr %retval, align 1
  br label %return

sw.bb94:                                          ; preds = %sw.bb84
  %55 = load i32, ptr %d.addr, align 4, !tbaa !17
  %cmp95 = icmp eq i32 %55, 24
  store i1 %cmp95, ptr %retval, align 1
  br label %return

sw.bb96:                                          ; preds = %sw.bb84
  %56 = load i32, ptr %d.addr, align 4, !tbaa !17
  %cmp97 = icmp eq i32 %56, 1
  store i1 %cmp97, ptr %retval, align 1
  br label %return

sw.default98:                                     ; preds = %sw.bb84
  store i1 false, ptr %retval, align 1
  br label %return

sw.default99:                                     ; preds = %entry
  store i1 false, ptr %retval, align 1
  br label %return

return:                                           ; preds = %sw.default99, %sw.default98, %sw.bb96, %sw.bb94, %sw.bb92, %lor.end91, %sw.default83, %sw.bb81, %lor.end80, %sw.default72, %sw.bb70, %lor.end69, %sw.default61, %sw.bb59, %sw.bb57, %sw.default55, %sw.bb53, %sw.bb51, %lor.end50, %lor.end45, %sw.default37, %lor.end36, %sw.default28, %lor.end27, %sw.default17, %lor.end, %sw.default, %sw.bb6, %sw.bb4, %sw.bb2, %sw.bb1
  %57 = load i1, ptr %retval, align 1
  ret i1 %57
}