; Function Attrs: mustprogress nofree norecurse nosync nounwind willreturn memory(none) uwtable
define internal fastcc noundef zeroext i1 @_ZN8QuantLib12_GLOBAL__N_126isExtraHolidayExchangeImplEiNS_5MonthEi(i32 noundef %d, i32 noundef %month, i32 noundef %year) unnamed_addr #8 {
entry:
  switch i32 %year, label %return [
    i32 2012, label %sw.bb
    i32 2013, label %sw.bb8
    i32 2014, label %sw.bb18
    i32 2015, label %sw.bb29
    i32 2016, label %sw.bb38
    i32 2017, label %sw.bb56
    i32 2018, label %sw.bb62
    i32 2019, label %sw.bb73
    i32 2020, label %sw.bb84
  ]

sw.bb:                                            ; preds = %entry
  switch i32 %month, label %return [
    i32 1, label %sw.bb1
    i32 3, label %sw.bb2
    i32 4, label %sw.bb4
    i32 6, label %sw.bb6
  ]

sw.bb1:                                           ; preds = %sw.bb
  %cmp = icmp eq i32 %d, 2
  br label %return

sw.bb2:                                           ; preds = %sw.bb
  %cmp3 = icmp eq i32 %d, 9
  br label %return

sw.bb4:                                           ; preds = %sw.bb
  %cmp5 = icmp eq i32 %d, 30
  br label %return

sw.bb6:                                           ; preds = %sw.bb
  %cmp7 = icmp eq i32 %d, 11
  br label %return

sw.bb8:                                           ; preds = %entry
  %cond2 = icmp eq i32 %month, 1
  br i1 %cond2, label %sw.bb9, label %return

sw.bb9:                                           ; preds = %sw.bb8
  %0 = add i32 %d, -1
  %or.cond4 = icmp ult i32 %0, 4
  %cmp16 = icmp eq i32 %d, 7
  %spec.select = or i1 %cmp16, %or.cond4
  br label %return

sw.bb18:                                          ; preds = %entry
  %cond1 = icmp eq i32 %month, 1
  br i1 %cond1, label %sw.bb19, label %return

sw.bb19:                                          ; preds = %sw.bb18
  %1 = add i32 %d, -1
  %or.cond6 = icmp ult i32 %1, 3
  %cmp26 = icmp eq i32 %d, 7
  %spec.select58 = or i1 %cmp26, %or.cond6
  br label %return

sw.bb29:                                          ; preds = %entry
  %cond = icmp eq i32 %month, 1
  br i1 %cond, label %sw.bb30, label %return

sw.bb30:                                          ; preds = %sw.bb29
  %2 = add i32 %d, -1
  %or.cond7 = icmp ult i32 %2, 2
  %cmp35 = icmp eq i32 %d, 7
  %spec.select59 = or i1 %cmp35, %or.cond7
  br label %return

sw.bb38:                                          ; preds = %entry
  switch i32 %month, label %return [
    i32 1, label %sw.bb39
    i32 5, label %sw.bb46
    i32 6, label %sw.bb51
    i32 12, label %sw.bb53
  ]

sw.bb39:                                          ; preds = %sw.bb38
  %3 = icmp ult i32 %d, 9
  br i1 %3, label %switch.lookup, label %return

sw.bb46:                                          ; preds = %sw.bb38
  %4 = and i32 %d, -2
  %5 = icmp eq i32 %4, 2
  br label %return

sw.bb51:                                          ; preds = %sw.bb38
  %cmp52 = icmp eq i32 %d, 13
  br label %return

sw.bb53:                                          ; preds = %sw.bb38
  %cmp54 = icmp eq i32 %d, 30
  br label %return

sw.bb56:                                          ; preds = %entry
  switch i32 %month, label %return [
    i32 1, label %sw.bb57
    i32 5, label %sw.bb59
  ]

sw.bb57:                                          ; preds = %sw.bb56
  %cmp58 = icmp eq i32 %d, 2
  br label %return

sw.bb59:                                          ; preds = %sw.bb56
  %cmp60 = icmp eq i32 %d, 8
  br label %return

sw.bb62:                                          ; preds = %entry
  switch i32 %month, label %return [
    i32 1, label %sw.bb63
    i32 12, label %sw.bb70
  ]

sw.bb63:                                          ; preds = %sw.bb62
  %6 = add i32 %d, -1
  %or.cond9 = icmp ult i32 %6, 2
  %cmp68 = icmp eq i32 %d, 8
  %spec.select60 = or i1 %cmp68, %or.cond9
  br label %return

sw.bb70:                                          ; preds = %sw.bb62
  %cmp71 = icmp eq i32 %d, 31
  br label %return

sw.bb73:                                          ; preds = %entry
  switch i32 %month, label %return [
    i32 1, label %sw.bb74
    i32 12, label %sw.bb81
  ]

sw.bb74:                                          ; preds = %sw.bb73
  %7 = add i32 %d, -1
  %or.cond10 = icmp ult i32 %7, 2
  %cmp79 = icmp eq i32 %d, 7
  %spec.select61 = or i1 %cmp79, %or.cond10
  br label %return

sw.bb81:                                          ; preds = %sw.bb73
  %cmp82 = icmp eq i32 %d, 31
  br label %return

sw.bb84:                                          ; preds = %entry
  switch i32 %month, label %return [
    i32 1, label %sw.bb85
    i32 2, label %sw.bb92
    i32 6, label %sw.bb94
    i32 7, label %sw.bb96
  ]

sw.bb85:                                          ; preds = %sw.bb84
  %8 = add i32 %d, -1
  %or.cond11 = icmp ult i32 %8, 2
  %cmp90 = icmp eq i32 %d, 7
  %spec.select62 = or i1 %cmp90, %or.cond11
  br label %return

sw.bb92:                                          ; preds = %sw.bb84
  %cmp93 = icmp eq i32 %d, 24
  br label %return

sw.bb94:                                          ; preds = %sw.bb84
  %cmp95 = icmp eq i32 %d, 24
  br label %return

sw.bb96:                                          ; preds = %sw.bb84
  %cmp97 = icmp eq i32 %d, 1
  br label %return

switch.lookup:                                    ; preds = %sw.bb39
  %switch.cast = trunc nuw i32 %d to i9
  %switch.downshift = lshr i9 -126, %switch.cast
  %switch.masked = trunc i9 %switch.downshift to i1
  br label %return

return:                                           ; preds = %sw.bb39, %switch.lookup, %entry, %sw.bb84, %sw.bb73, %sw.bb62, %sw.bb56, %sw.bb38, %sw.bb29, %sw.bb18, %sw.bb8, %sw.bb, %sw.bb96, %sw.bb94, %sw.bb92, %sw.bb85, %sw.bb81, %sw.bb74, %sw.bb70, %sw.bb63, %sw.bb59, %sw.bb57, %sw.bb53, %sw.bb51, %sw.bb46, %sw.bb30, %sw.bb19, %sw.bb9, %sw.bb6, %sw.bb4, %sw.bb2, %sw.bb1
  %retval.0 = phi i1 [ %cmp97, %sw.bb96 ], [ %cmp95, %sw.bb94 ], [ %cmp93, %sw.bb92 ], [ %spec.select62, %sw.bb85 ], [ %cmp82, %sw.bb81 ], [ %spec.select61, %sw.bb74 ], [ %cmp71, %sw.bb70 ], [ %spec.select60, %sw.bb63 ], [ %cmp60, %sw.bb59 ], [ %cmp58, %sw.bb57 ], [ %cmp54, %sw.bb53 ], [ %cmp52, %sw.bb51 ], [ %5, %sw.bb46 ], [ %spec.select59, %sw.bb30 ], [ %spec.select58, %sw.bb19 ], [ %spec.select, %sw.bb9 ], [ %cmp7, %sw.bb6 ], [ %cmp5, %sw.bb4 ], [ %cmp3, %sw.bb2 ], [ %cmp, %sw.bb1 ], [ false, %sw.bb ], [ false, %sw.bb8 ], [ false, %sw.bb18 ], [ false, %sw.bb29 ], [ false, %sw.bb38 ], [ false, %sw.bb56 ], [ false, %sw.bb62 ], [ false, %sw.bb73 ], [ false, %sw.bb84 ], [ false, %entry ], [ %switch.masked, %switch.lookup ], [ false, %sw.bb39 ]
  ret i1 %retval.0
}